target datalayout = "e-m:e-p270:32:32-p271:32:32-p272:64:64-i64:64-i128:128-f80:128-n8:16:32:64-S128"
target triple = "x86_64-unknown-linux-gnu"

%struct.FLAC__BitWriter = type { ptr, i64, i32, i32, i32 }

@FLAC__STREAM_METADATA_LENGTH_LEN = external constant i32, align 4

; Function Attrs: nounwind sspstrong uwtable
define internal ptr @safe_realloc_nofree_mul_2op_(ptr noundef %ptr, i64 noundef %size1, i64 noundef %size2) #0 {
entry:
  %retval = alloca ptr, align 8
  %ptr.addr = alloca ptr, align 8
  %size1.addr = alloca i64, align 8
  %size2.addr = alloca i64, align 8
  store ptr %ptr, ptr %ptr.addr, align 8
  store i64 %size1, ptr %size1.addr, align 8
  store i64 %size2, ptr %size2.addr, align 8
  %0 = load i64, ptr %size1.addr, align 8
  %tobool = icmp ne i64 %0, 0
  br i1 %tobool, label %lor.lhs.false, label %if.then

lor.lhs.false:                                    ; preds = %entry
  %1 = load i64, ptr %size2.addr, align 8
  %tobool1 = icmp ne i64 %1, 0
  br i1 %tobool1, label %if.end, label %if.then

if.then:                                          ; preds = %lor.lhs.false, %entry
  %2 = load ptr, ptr %ptr.addr, align 8
  %call = call ptr @realloc(ptr noundef %2, i64 noundef 0) #10
  store ptr %call, ptr %retval, align 8
  br label %return

if.end:                                           ; preds = %lor.lhs.false
  %3 = load i64, ptr %size1.addr, align 8
  %4 = load i64, ptr %size2.addr, align 8
  %div = udiv i64 -1, %4
  %cmp = icmp ugt i64 %3, %div
  br i1 %cmp, label %if.then2, label %if.end3

if.then2:                                         ; preds = %if.end
  store ptr null, ptr %retval, align 8
  br label %return

if.end3:                                          ; preds = %if.end
  %5 = load ptr, ptr %ptr.addr, align 8
  %6 = load i64, ptr %size1.addr, align 8
  %7 = load i64, ptr %size2.addr, align 8
  %mul = mul i64 %6, %7
  %call4 = call ptr @realloc(ptr noundef %5, i64 noundef %mul) #10
  store ptr %call4, ptr %retval, align 8
  br label %return

return:                                           ; preds = %if.end3, %if.then2, %if.then
  %8 = load ptr, ptr %retval, align 8
  ret ptr %8
}

; Function Attrs: nounwind sspstrong uwtable
define internal i32 @bitwriter_grow_(ptr noundef %bw, i32 noundef %bits_to_add) #0 {
entry:
  %retval = alloca i32, align 4
  %bw.addr = alloca ptr, align 8
  %bits_to_add.addr = alloca i32, align 4
  %new_capacity = alloca i32, align 4
  %new_buffer = alloca ptr, align 8
  store ptr %bw, ptr %bw.addr, align 8
  store i32 %bits_to_add, ptr %bits_to_add.addr, align 4
  %0 = load ptr, ptr %bw.addr, align 8
  %words = getelementptr inbounds %struct.FLAC__BitWriter, ptr %0, i32 0, i32 3
  %1 = load i32, ptr %words, align 4
  %2 = load ptr, ptr %bw.addr, align 8
  %bits = getelementptr inbounds %struct.FLAC__BitWriter, ptr %2, i32 0, i32 4
  %3 = load i32, ptr %bits, align 8
  %4 = load i32, ptr %bits_to_add.addr, align 4
  %add = add i32 %3, %4
  %add1 = add i32 %add, 64
  %sub = sub i32 %add1, 1
  %div = udiv i32 %sub, 64
  %add2 = add i32 %1, %div
  store i32 %add2, ptr %new_capacity, align 4
  %5 = load ptr, ptr %bw.addr, align 8
  %capacity = getelementptr inbounds %struct.FLAC__BitWriter, ptr %5, i32 0, i32 2
  %6 = load i32, ptr %capacity, align 8
  %7 = load i32, ptr %new_capacity, align 4
  %cmp = icmp uge i32 %6, %7
  br i1 %cmp, label %if.then, label %if.end

if.then:                                          ; preds = %entry
  store i32 1, ptr %retval, align 4
  br label %return

if.end:                                           ; preds = %entry
  %8 = load i32, ptr %new_capacity, align 4
  %conv = zext i32 %8 to i64
  %mul = mul i64 %conv, 8
  %9 = load i32, ptr @FLAC__STREAM_METADATA_LENGTH_LEN, align 4
  %shl = shl i32 1, %9
  %conv3 = zext i32 %shl to i64
  %cmp4 = icmp ugt i64 %mul, %conv3
  br i1 %cmp4, label %if.then6, label %if.end7

if.then6:                                         ; preds = %if.end
  store i32 0, ptr %retval, align 4
  br label %return

if.end7:                                          ; preds = %if.end
  %10 = load i32, ptr %new_capacity, align 4
  %11 = load ptr, ptr %bw.addr, align 8
  %capacity8 = getelementptr inbounds %struct.FLAC__BitWriter, ptr %11, i32 0, i32 2
  %12 = load i32, ptr %capacity8, align 8
  %sub9 = sub i32 %10, %12
  %rem = urem i32 %sub9, 512
  %tobool = icmp ne i32 %rem, 0
  br i1 %tobool, label %if.then10, label %if.end16

if.then10:                                        ; preds = %if.end7
  %13 = load i32, ptr %new_capacity, align 4
  %14 = load ptr, ptr %bw.addr, align 8
  %capacity11 = getelementptr inbounds %struct.FLAC__BitWriter, ptr %14, i32 0, i32 2
  %15 = load i32, ptr %capacity11, align 8
  %sub12 = sub i32 %13, %15
  %rem13 = urem i32 %sub12, 512
  %sub14 = sub i32 512, %rem13
  %16 = load i32, ptr %new_capacity, align 4
  %add15 = add i32 %16, %sub14
  store i32 %add15, ptr %new_capacity, align 4
  br label %if.end16

if.end16:                                         ; preds = %if.then10, %if.end7
  %17 = load ptr, ptr %bw.addr, align 8
  %buffer = getelementptr inbounds %struct.FLAC__BitWriter, ptr %17, i32 0, i32 0
  %18 = load ptr, ptr %buffer, align 8
  %19 = load i32, ptr %new_capacity, align 4
  %conv17 = zext i32 %19 to i64
  %call = call ptr @safe_realloc_nofree_mul_2op_(ptr noundef %18, i64 noundef 8, i64 noundef %conv17)
  store ptr %call, ptr %new_buffer, align 8
  %20 = load ptr, ptr %new_buffer, align 8
  %cmp18 = icmp eq ptr %20, null
  br i1 %cmp18, label %if.then20, label %if.end21

if.then20:                                        ; preds = %if.end16
  store i32 0, ptr %retval, align 4
  br label %return

if.end21:                                         ; preds = %if.end16
  %21 = load ptr, ptr %new_buffer, align 8
  %22 = load ptr, ptr %bw.addr, align 8
  %buffer22 = getelementptr inbounds %struct.FLAC__BitWriter, ptr %22, i32 0, i32 0
  store ptr %21, ptr %buffer22, align 8
  %23 = load i32, ptr %new_capacity, align 4
  %24 = load ptr, ptr %bw.addr, align 8
  %capacity23 = getelementptr inbounds %struct.FLAC__BitWriter, ptr %24, i32 0, i32 2
  store i32 %23, ptr %capacity23, align 8
  store i32 1, ptr %retval, align 4
  br label %return

return:                                           ; preds = %if.end21, %if.then20, %if.then6, %if.then
  %25 = load i32, ptr %retval, align 4
  ret i32 %25
}

; Function Attrs: nounwind sspstrong uwtable
define hidden i32 @FLAC__bitwriter_write_zeroes(ptr noundef %bw, i32 noundef %bits) #0 {
entry:
  %retval = alloca i32, align 4
  %bw.addr = alloca ptr, align 8
  %bits.addr = alloca i32, align 4
  %n = alloca i32, align 4
  store ptr %bw, ptr %bw.addr, align 8
  store i32 %bits, ptr %bits.addr, align 4
  %0 = load i32, ptr %bits.addr, align 4
  %cmp = icmp eq i32 %0, 0
  br i1 %cmp, label %if.then, label %if.end

if.then:                                          ; preds = %entry
  store i32 1, ptr %retval, align 4
  br label %return

if.end:                                           ; preds = %entry
  %1 = load ptr, ptr %bw.addr, align 8
  %capacity = getelementptr inbounds %struct.FLAC__BitWriter, ptr %1, i32 0, i32 2
  %2 = load i32, ptr %capacity, align 8
  %3 = load ptr, ptr %bw.addr, align 8
  %words = getelementptr inbounds %struct.FLAC__BitWriter, ptr %3, i32 0, i32 3
  %4 = load i32, ptr %words, align 4
  %5 = load i32, ptr %bits.addr, align 4
  %add = add i32 %4, %5
  %cmp1 = icmp ule i32 %2, %add
  br i1 %cmp1, label %land.lhs.true, label %if.end3

land.lhs.true:                                    ; preds = %if.end
  %6 = load ptr, ptr %bw.addr, align 8
  %7 = load i32, ptr %bits.addr, align 4
  %call = call i32 @bitwriter_grow_(ptr noundef %6, i32 noundef %7)
  %tobool = icmp ne i32 %call, 0
  br i1 %tobool, label %if.end3, label %if.then2

if.then2:                                         ; preds = %land.lhs.true
  store i32 0, ptr %retval, align 4
  br label %return

if.end3:                                          ; preds = %land.lhs.true, %if.end
  %8 = load ptr, ptr %bw.addr, align 8
  %bits4 = getelementptr inbounds %struct.FLAC__BitWriter, ptr %8, i32 0, i32 4
  %9 = load i32, ptr %bits4, align 8
  %tobool5 = icmp ne i32 %9, 0
  br i1 %tobool5, label %if.then6, label %if.end21

if.then6:                                         ; preds = %if.end3
  %10 = load ptr, ptr %bw.addr, align 8
  %bits7 = getelementptr inbounds %struct.FLAC__BitWriter, ptr %10, i32 0, i32 4
  %11 = load i32, ptr %bits7, align 8
  %sub = sub i32 64, %11
  %12 = load i32, ptr %bits.addr, align 4
  %cmp8 = icmp ult i32 %sub, %12
  br i1 %cmp8, label %cond.true, label %cond.false

cond.true:                                        ; preds = %if.then6
  %13 = load ptr, ptr %bw.addr, align 8
  %bits9 = getelementptr inbounds %struct.FLAC__BitWriter, ptr %13, i32 0, i32 4
  %14 = load i32, ptr %bits9, align 8
  %sub10 = sub i32 64, %14
  br label %cond.end

cond.false:                                       ; preds = %if.then6
  %15 = load i32, ptr %bits.addr, align 4
  br label %cond.end

cond.end:                                         ; preds = %cond.false, %cond.true
  %cond = phi i32 [ %sub10, %cond.true ], [ %15, %cond.false ]
  store i32 %cond, ptr %n, align 4
  %16 = load i32, ptr %n, align 4
  %17 = load ptr, ptr %bw.addr, align 8
  %accum = getelementptr inbounds %struct.FLAC__BitWriter, ptr %17, i32 0, i32 1
  %18 = load i64, ptr %accum, align 8
  %sh_prom = zext i32 %16 to i64
  %shl = shl i64 %18, %sh_prom
  store i64 %shl, ptr %accum, align 8
  %19 = load i32, ptr %n, align 4
  %20 = load i32, ptr %bits.addr, align 4
  %sub11 = sub i32 %20, %19
  store i32 %sub11, ptr %bits.addr, align 4
  %21 = load i32, ptr %n, align 4
  %22 = load ptr, ptr %bw.addr, align 8
  %bits12 = getelementptr inbounds %struct.FLAC__BitWriter, ptr %22, i32 0, i32 4
  %23 = load i32, ptr %bits12, align 8
  %add13 = add i32 %23, %21
  store i32 %add13, ptr %bits12, align 8
  %24 = load ptr, ptr %bw.addr, align 8
  %bits14 = getelementptr inbounds %struct.FLAC__BitWriter, ptr %24, i32 0, i32 4
  %25 = load i32, ptr %bits14, align 8
  %cmp15 = icmp eq i32 %25, 64
  br i1 %cmp15, label %if.then16, label %if.else

if.then16:                                        ; preds = %cond.end
  %26 = load ptr, ptr %bw.addr, align 8
  %accum17 = getelementptr inbounds %struct.FLAC__BitWriter, ptr %26, i32 0, i32 1
  %27 = load i64, ptr %accum17, align 8
  %28 = call i64 @llvm.bswap.i64(i64 %27)
  %29 = load ptr, ptr %bw.addr, align 8
  %buffer = getelementptr inbounds %struct.FLAC__BitWriter, ptr %29, i32 0, i32 0
  %30 = load ptr, ptr %buffer, align 8
  %31 = load ptr, ptr %bw.addr, align 8
  %words18 = getelementptr inbounds %struct.FLAC__BitWriter, ptr %31, i32 0, i32 3
  %32 = load i32, ptr %words18, align 4
  %inc = add i32 %32, 1
  store i32 %inc, ptr %words18, align 4
  %idxprom = zext i32 %32 to i64
  %arrayidx = getelementptr inbounds i64, ptr %30, i64 %idxprom
  store i64 %28, ptr %arrayidx, align 8
  %33 = load ptr, ptr %bw.addr, align 8
  %bits19 = getelementptr inbounds %struct.FLAC__BitWriter, ptr %33, i32 0, i32 4
  store i32 0, ptr %bits19, align 8
  br label %if.end20

if.else:                                          ; preds = %cond.end
  store i32 1, ptr %retval, align 4
  br label %return

if.end20:                                         ; preds = %if.then16
  br label %if.end21

if.end21:                                         ; preds = %if.end20, %if.end3
  br label %while.cond

while.cond:                                       ; preds = %while.body, %if.end21
  %34 = load i32, ptr %bits.addr, align 4
  %cmp22 = icmp uge i32 %34, 64
  br i1 %cmp22, label %while.body, label %while.end

while.body:                                       ; preds = %while.cond
  %35 = load ptr, ptr %bw.addr, align 8
  %buffer23 = getelementptr inbounds %struct.FLAC__BitWriter, ptr %35, i32 0, i32 0
  %36 = load ptr, ptr %buffer23, align 8
  %37 = load ptr, ptr %bw.addr, align 8
  %words24 = getelementptr inbounds %struct.FLAC__BitWriter, ptr %37, i32 0, i32 3
  %38 = load i32, ptr %words24, align 4
  %inc25 = add i32 %38, 1
  store i32 %inc25, ptr %words24, align 4
  %idxprom26 = zext i32 %38 to i64
  %arrayidx27 = getelementptr inbounds i64, ptr %36, i64 %idxprom26
  store i64 0, ptr %arrayidx27, align 8
  %39 = load i32, ptr %bits.addr, align 4
  %sub28 = sub i32 %39, 64
  store i32 %sub28, ptr %bits.addr, align 4
  br label %while.cond, !llvm.loop !4

while.end:                                        ; preds = %while.cond
  %40 = load i32, ptr %bits.addr, align 4
  %cmp29 = icmp ugt i32 %40, 0
  br i1 %cmp29, label %if.then30, label %if.end33

if.then30:                                        ; preds = %while.end
  %41 = load ptr, ptr %bw.addr, align 8
  %accum31 = getelementptr inbounds %struct.FLAC__BitWriter, ptr %41, i32 0, i32 1
  store i64 0, ptr %accum31, align 8
  %42 = load i32, ptr %bits.addr, align 4
  %43 = load ptr, ptr %bw.addr, align 8
  %bits32 = getelementptr inbounds %struct.FLAC__BitWriter, ptr %43, i32 0, i32 4
  store i32 %42, ptr %bits32, align 8
  br label %if.end33

if.end33:                                         ; preds = %if.then30, %while.end
  store i32 1, ptr %retval, align 4
  br label %return

return:                                           ; preds = %if.end33, %if.else, %if.then2, %if.then
  %44 = load i32, ptr %retval, align 4
  ret i32 %44
}