; Function Attrs: nounwind sspstrong uwtable
define hidden range(i32 0, 2) i32 @FLAC__bitwriter_write_zeroes(ptr noundef captures(none) %bw, i32 noundef %bits) local_unnamed_addr #7 {
entry:
  %cmp = icmp eq i32 %bits, 0
  br i1 %cmp, label %return, label %if.end

if.end:                                           ; preds = %entry
  %capacity = getelementptr inbounds nuw i8, ptr %bw, i64 16
  %0 = load i32, ptr %capacity, align 8
  %words = getelementptr inbounds nuw i8, ptr %bw, i64 20
  %1 = load i32, ptr %words, align 4
  %add = add i32 %1, %bits
  %cmp1.not = icmp ugt i32 %0, %add
  br i1 %cmp1.not, label %if.end3, label %land.lhs.true

land.lhs.true:                                    ; preds = %if.end
  %bits.i = getelementptr inbounds nuw i8, ptr %bw, i64 24
  %2 = load i32, ptr %bits.i, align 8
  %add.i = add i32 %bits, 63
  %sub.i = add i32 %add.i, %2
  %div15.i = lshr i32 %sub.i, 6
  %add2.i = add i32 %div15.i, %1
  %cmp.not.i = icmp ult i32 %0, %add2.i
  br i1 %cmp.not.i, label %if.end.i, label %if.end3

if.end.i:                                         ; preds = %land.lhs.true
  %conv.i = zext i32 %add2.i to i64
  %mul.i = shl nuw nsw i64 %conv.i, 3
  %3 = load i32, ptr @FLAC__STREAM_METADATA_LENGTH_LEN, align 4
  %shl.i = shl nuw i32 1, %3
  %conv3.i = zext i32 %shl.i to i64
  %cmp4.i = icmp samesign ugt i64 %mul.i, %conv3.i
  br i1 %cmp4.i, label %return, label %if.end7.i

if.end7.i:                                        ; preds = %if.end.i
  %sub9.i = sub i32 %add2.i, %0
  %rem.i = and i32 %sub9.i, 511
  %tobool.not.i = icmp eq i32 %rem.i, 0
  %reass.sub.i = add i32 %add2.i, 512
  %add15.i = sub i32 %reass.sub.i, %rem.i
  %new_capacity.0.i = select i1 %tobool.not.i, i32 %add2.i, i32 %add15.i
  %4 = load ptr, ptr %bw, align 8
  %conv17.i = zext i32 %new_capacity.0.i to i64
  %mul.i.i = shl nuw nsw i64 %conv17.i, 3
  %call4.i.i = tail call noalias noundef ptr @realloc(ptr noundef %4, i64 noundef %mul.i.i) #17
  %cmp18.i = icmp eq ptr %call4.i.i, null
  br i1 %cmp18.i, label %return, label %if.end21.i

if.end21.i:                                       ; preds = %if.end7.i
  store ptr %call4.i.i, ptr %bw, align 8
  store i32 %new_capacity.0.i, ptr %capacity, align 8
  br label %if.end3

if.end3:                                          ; preds = %if.end21.i, %land.lhs.true, %if.end
  %bits4 = getelementptr inbounds nuw i8, ptr %bw, i64 24
  %5 = load i32, ptr %bits4, align 8
  %tobool5.not = icmp eq i32 %5, 0
  br i1 %tobool5.not, label %if.end21, label %if.then6

if.then6:                                         ; preds = %if.end3
  %sub = sub i32 64, %5
  %sub.bits = tail call i32 @llvm.umin.i32(i32 %sub, i32 %bits)
  %accum = getelementptr inbounds nuw i8, ptr %bw, i64 8
  %6 = load i64, ptr %accum, align 8
  %sh_prom = zext nneg i32 %sub.bits to i64
  %shl = shl i64 %6, %sh_prom
  store i64 %shl, ptr %accum, align 8
  %add13 = add i32 %sub.bits, %5
  store i32 %add13, ptr %bits4, align 8
  %cmp15 = icmp eq i32 %add13, 64
  br i1 %cmp15, label %if.then16, label %return

if.then16:                                        ; preds = %if.then6
  %sub11 = sub i32 %bits, %sub.bits
  %7 = tail call i64 @llvm.bswap.i64(i64 %shl)
  %8 = load ptr, ptr %bw, align 8
  %9 = load i32, ptr %words, align 4
  %inc = add i32 %9, 1
  store i32 %inc, ptr %words, align 4
  %idxprom = zext i32 %9 to i64
  %arrayidx = getelementptr inbounds nuw i64, ptr %8, i64 %idxprom
  store i64 %7, ptr %arrayidx, align 8
  store i32 0, ptr %bits4, align 8
  br label %if.end21

if.end21:                                         ; preds = %if.then16, %if.end3
  %bits.addr.0 = phi i32 [ %sub11, %if.then16 ], [ %bits, %if.end3 ]
  %cmp2230 = icmp ugt i32 %bits.addr.0, 63
  br i1 %cmp2230, label %while.body, label %while.end

while.body:                                       ; preds = %if.end21, %while.body
  %bits.addr.131 = phi i32 [ %sub28, %while.body ], [ %bits.addr.0, %if.end21 ]
  %10 = load ptr, ptr %bw, align 8
  %11 = load i32, ptr %words, align 4
  %inc25 = add i32 %11, 1
  store i32 %inc25, ptr %words, align 4
  %idxprom26 = zext i32 %11 to i64
  %arrayidx27 = getelementptr inbounds nuw i64, ptr %10, i64 %idxprom26
  store i64 0, ptr %arrayidx27, align 8
  %sub28 = add i32 %bits.addr.131, -64
  %cmp22 = icmp ugt i32 %sub28, 63
  br i1 %cmp22, label %while.body, label %while.end, !llvm.loop !4

while.end:                                        ; preds = %while.body, %if.end21
  %bits.addr.1.lcssa = phi i32 [ %bits.addr.0, %if.end21 ], [ %sub28, %while.body ]
  %cmp29.not = icmp eq i32 %bits.addr.1.lcssa, 0
  br i1 %cmp29.not, label %return, label %if.then30

if.then30:                                        ; preds = %while.end
  %accum31 = getelementptr inbounds nuw i8, ptr %bw, i64 8
  store i64 0, ptr %accum31, align 8
  store i32 %bits.addr.1.lcssa, ptr %bits4, align 8
  br label %return

return:                                           ; preds = %if.end7.i, %if.end.i, %while.end, %if.then30, %if.then6, %entry
  %retval.0 = phi i32 [ 1, %entry ], [ 1, %if.then6 ], [ 1, %if.then30 ], [ 1, %while.end ], [ 0, %if.end.i ], [ 0, %if.end7.i ]
  ret i32 %retval.0
}